; Function Attrs: mustprogress nofree norecurse nosync nounwind willreturn memory(argmem: read) uwtable
define dso_local float @meshopt_simplifyScale(ptr noundef readonly captures(none) %0, i64 noundef %1, i64 noundef %2) local_unnamed_addr #7 {
  %4 = alloca [3 x float], align 4
  %5 = alloca [3 x float], align 4
  %6 = lshr i64 %2, 2
  call void @llvm.lifetime.start.p0(i64 12, ptr nonnull %4) #16
  call void @llvm.memcpy.p0.p0.i64(ptr noundef nonnull align 4 dereferenceable(12) %4, ptr noundef nonnull align 4 dereferenceable(12) @__const._ZN7meshoptL16rescalePositionsEPNS_7Vector3EPKfmmPKj.minv, i64 12, i1 false)
  call void @llvm.lifetime.start.p0(i64 12, ptr nonnull %5) #16
  call void @llvm.memcpy.p0.p0.i64(ptr noundef nonnull align 4 dereferenceable(12) %5, ptr noundef nonnull align 4 dereferenceable(12) @__const._ZN7meshoptL16rescalePositionsEPNS_7Vector3EPKfmmPKj.maxv, i64 12, i1 false)
  %.not81.i = icmp eq i64 %1, 0
  br i1 %.not81.i, label %_ZN7meshoptL16rescalePositionsEPNS_7Vector3EPKfmmPKj.exit, label %.lr.ph.split.us.i

.lr.ph.split.us.i:                                ; preds = %3, %10
  %.06274.us.i = phi i64 [ %11, %10 ], [ 0, %3 ]
  %7 = and i64 %.06274.us.i, 4294967295
  %8 = mul i64 %7, %6
  %9 = getelementptr inbounds nuw float, ptr %0, i64 %8
  br label %12

10:                                               ; preds = %12
  %11 = add nuw i64 %.06274.us.i, 1
  %exitcond96.not.i = icmp eq i64 %11, %1
  br i1 %exitcond96.not.i, label %_ZN7meshoptL16rescalePositionsEPNS_7Vector3EPKfmmPKj.exit.loopexit, label %.lr.ph.split.us.i, !llvm.loop !101

12:                                               ; preds = %12, %.lr.ph.split.us.i
  %indvars.iv92.i = phi i64 [ %indvars.iv.next93.i, %12 ], [ 0, %.lr.ph.split.us.i ]
  %13 = getelementptr inbounds nuw float, ptr %9, i64 %indvars.iv92.i
  %14 = load float, ptr %13, align 4, !tbaa !34
  %15 = getelementptr inbounds nuw [3 x float], ptr %4, i64 0, i64 %indvars.iv92.i
  %16 = load float, ptr %15, align 4, !tbaa !34
  %17 = fcmp ogt float %16, %14
  %..us.i = select i1 %17, float %14, float %16
  store float %..us.i, ptr %15, align 4, !tbaa !34
  %18 = getelementptr inbounds nuw [3 x float], ptr %5, i64 0, i64 %indvars.iv92.i
  %19 = load float, ptr %18, align 4, !tbaa !34
  %20 = fcmp olt float %19, %14
  %21 = select i1 %20, float %14, float %19
  store float %21, ptr %18, align 4, !tbaa !34
  %indvars.iv.next93.i = add nuw nsw i64 %indvars.iv92.i, 1
  %exitcond95.not.i = icmp eq i64 %indvars.iv.next93.i, 3
  br i1 %exitcond95.not.i, label %10, label %12, !llvm.loop !102

_ZN7meshoptL16rescalePositionsEPNS_7Vector3EPKfmmPKj.exit.loopexit: ; preds = %10
  %.pre = load float, ptr %5, align 4, !tbaa !34
  %.pre3 = load float, ptr %4, align 4, !tbaa !34
  %.phi.trans.insert = getelementptr inbounds nuw i8, ptr %5, i64 4
  %.pre4 = load float, ptr %.phi.trans.insert, align 4, !tbaa !34
  %.phi.trans.insert5 = getelementptr inbounds nuw i8, ptr %4, i64 4
  %.pre6 = load float, ptr %.phi.trans.insert5, align 4, !tbaa !34
  %.phi.trans.insert7 = getelementptr inbounds nuw i8, ptr %5, i64 8
  %.pre8 = load float, ptr %.phi.trans.insert7, align 4, !tbaa !34
  %.phi.trans.insert9 = getelementptr inbounds nuw i8, ptr %4, i64 8
  %.pre10 = load float, ptr %.phi.trans.insert9, align 4, !tbaa !34
  %22 = fsub float %.pre, %.pre3
  %23 = fsub float %.pre4, %.pre6
  %24 = fsub float %.pre8, %.pre10
  br label %_ZN7meshoptL16rescalePositionsEPNS_7Vector3EPKfmmPKj.exit

_ZN7meshoptL16rescalePositionsEPNS_7Vector3EPKfmmPKj.exit: ; preds = %_ZN7meshoptL16rescalePositionsEPNS_7Vector3EPKfmmPKj.exit.loopexit, %3
  %25 = phi float [ %22, %_ZN7meshoptL16rescalePositionsEPNS_7Vector3EPKfmmPKj.exit.loopexit ], [ 0xFFF0000000000000, %3 ]
  %26 = phi float [ %23, %_ZN7meshoptL16rescalePositionsEPNS_7Vector3EPKfmmPKj.exit.loopexit ], [ 0xFFF0000000000000, %3 ]
  %27 = phi float [ %24, %_ZN7meshoptL16rescalePositionsEPNS_7Vector3EPKfmmPKj.exit.loopexit ], [ 0xFFF0000000000000, %3 ]
  %28 = fcmp olt float %25, 0.000000e+00
  %29 = select i1 %28, float 0.000000e+00, float %25
  %30 = fcmp olt float %26, %29
  %31 = select i1 %30, float %29, float %26
  %32 = fcmp olt float %27, %31
  %33 = select i1 %32, float %31, float %27
  call void @llvm.lifetime.end.p0(i64 12, ptr nonnull %5) #16
  call void @llvm.lifetime.end.p0(i64 12, ptr nonnull %4) #16
  ret float %33
}